; ModuleID = '51/1075.c'
source_filename = "51/1075.c"
target datalayout = "e-m:e-p270:32:32-p271:32:32-p272:64:64-i64:64-f80:128-n8:16:32:64-S128"
target triple = "x86_64-pc-linux-gnu"

@.str = private unnamed_addr constant [3 x i8] c"%d\00", align 1
@.str.1 = private unnamed_addr constant [4 x i8] c"NO\0A\00", align 1
@.str.2 = private unnamed_addr constant [4 x i8] c"%d\0A\00", align 1
@.str.3 = private unnamed_addr constant [4 x i8] c"%s\0A\00", align 1

; Function Attrs: noinline nounwind uwtable
define dso_local i32 @main() #0 {
  %1 = alloca i32, align 4
  %2 = alloca i32, align 4
  %3 = alloca i32, align 4
  %4 = alloca i32, align 4
  %5 = alloca i32, align 4
  %6 = alloca i32, align 4
  %7 = alloca i32, align 4
  %8 = alloca [500 x i8], align 16
  %9 = alloca [500 x [5 x i8]], align 16
  %10 = alloca [500 x i32], align 16
  store i32 0, i32* %1, align 4
  %11 = bitcast [500 x i8]* %8 to i8*
  call void @llvm.memset.p0i8.i64(i8* align 16 %11, i8 0, i64 500, i1 false)
  %12 = bitcast [500 x [5 x i8]]* %9 to i8*
  call void @llvm.memset.p0i8.i64(i8* align 16 %12, i8 0, i64 2500, i1 false)
  %13 = bitcast [500 x i32]* %10 to i8*
  call void @llvm.memset.p0i8.i64(i8* align 16 %13, i8 0, i64 2000, i1 false)
  %14 = call i32 (i8*, ...) @__isoc99_scanf(i8* getelementptr inbounds ([3 x i8], [3 x i8]* @.str, i64 0, i64 0), i32* %2)
  %15 = call i32 @getchar()
  %16 = getelementptr inbounds [500 x i8], [500 x i8]* %8, i64 0, i64 0
  %17 = call i32 (i8*, ...) bitcast (i32 (...)* @gets to i32 (i8*, ...)*)(i8* %16)
  %18 = getelementptr inbounds [500 x i8], [500 x i8]* %8, i64 0, i64 0
  %19 = call i64 @strlen(i8* %18) #4
  %20 = trunc i64 %19 to i32
  store i32 %20, i32* %3, align 4
  store i32 0, i32* %5, align 4
  br label %21

21:                                               ; preds = %55, %0
  %22 = load i32, i32* %5, align 4
  %23 = sext i32 %22 to i64
  %24 = getelementptr inbounds [500 x i8], [500 x i8]* %8, i64 0, i64 0
  %25 = call i64 @strlen(i8* %24) #4
  %26 = load i32, i32* %2, align 4
  %27 = sext i32 %26 to i64
  %28 = sub i64 %25, %27
  %29 = icmp ule i64 %23, %28
  br i1 %29, label %30, label %58

30:                                               ; preds = %21
  %31 = load i32, i32* %5, align 4
  store i32 %31, i32* %6, align 4
  store i32 0, i32* %7, align 4
  br label %32

32:                                               ; preds = %49, %30
  %33 = load i32, i32* %6, align 4
  %34 = load i32, i32* %5, align 4
  %35 = load i32, i32* %2, align 4
  %36 = add nsw i32 %34, %35
  %37 = icmp slt i32 %33, %36
  br i1 %37, label %38, label %54

38:                                               ; preds = %32
  %39 = load i32, i32* %6, align 4
  %40 = sext i32 %39 to i64
  %41 = getelementptr inbounds [500 x i8], [500 x i8]* %8, i64 0, i64 %40
  %42 = load i8, i8* %41, align 1
  %43 = load i32, i32* %5, align 4
  %44 = sext i32 %43 to i64
  %45 = getelementptr inbounds [500 x [5 x i8]], [500 x [5 x i8]]* %9, i64 0, i64 %44
  %46 = load i32, i32* %7, align 4
  %47 = sext i32 %46 to i64
  %48 = getelementptr inbounds [5 x i8], [5 x i8]* %45, i64 0, i64 %47
  store i8 %42, i8* %48, align 1
  br label %49

49:                                               ; preds = %38
  %50 = load i32, i32* %6, align 4
  %51 = add nsw i32 %50, 1
  store i32 %51, i32* %6, align 4
  %52 = load i32, i32* %7, align 4
  %53 = add nsw i32 %52, 1
  store i32 %53, i32* %7, align 4
  br label %32

54:                                               ; preds = %32
  br label %55

55:                                               ; preds = %54
  %56 = load i32, i32* %5, align 4
  %57 = add nsw i32 %56, 1
  store i32 %57, i32* %5, align 4
  br label %21

58:                                               ; preds = %21
  store i32 1, i32* %5, align 4
  br label %59

59:                                               ; preds = %95, %58
  %60 = load i32, i32* %5, align 4
  %61 = sext i32 %60 to i64
  %62 = getelementptr inbounds [500 x i8], [500 x i8]* %8, i64 0, i64 0
  %63 = call i64 @strlen(i8* %62) #4
  %64 = load i32, i32* %2, align 4
  %65 = sext i32 %64 to i64
  %66 = sub i64 %63, %65
  %67 = icmp ule i64 %61, %66
  br i1 %67, label %68, label %98

68:                                               ; preds = %59
  store i32 0, i32* %6, align 4
  br label %69

69:                                               ; preds = %91, %68
  %70 = load i32, i32* %6, align 4
  %71 = load i32, i32* %5, align 4
  %72 = icmp slt i32 %70, %71
  br i1 %72, label %73, label %94

73:                                               ; preds = %69
  %74 = load i32, i32* %5, align 4
  %75 = sext i32 %74 to i64
  %76 = getelementptr inbounds [500 x [5 x i8]], [500 x [5 x i8]]* %9, i64 0, i64 %75
  %77 = getelementptr inbounds [5 x i8], [5 x i8]* %76, i64 0, i64 0
  %78 = load i32, i32* %6, align 4
  %79 = sext i32 %78 to i64
  %80 = getelementptr inbounds [500 x [5 x i8]], [500 x [5 x i8]]* %9, i64 0, i64 %79
  %81 = getelementptr inbounds [5 x i8], [5 x i8]* %80, i64 0, i64 0
  %82 = call i32 @strcmp(i8* %77, i8* %81) #4
  %83 = icmp eq i32 %82, 0
  br i1 %83, label %84, label %90

84:                                               ; preds = %73
  %85 = load i32, i32* %6, align 4
  %86 = sext i32 %85 to i64
  %87 = getelementptr inbounds [500 x i32], [500 x i32]* %10, i64 0, i64 %86
  %88 = load i32, i32* %87, align 4
  %89 = add nsw i32 %88, 1
  store i32 %89, i32* %87, align 4
  br label %90

90:                                               ; preds = %84, %73
  br label %91

91:                                               ; preds = %90
  %92 = load i32, i32* %6, align 4
  %93 = add nsw i32 %92, 1
  store i32 %93, i32* %6, align 4
  br label %69

94:                                               ; preds = %69
  br label %95

95:                                               ; preds = %94
  %96 = load i32, i32* %5, align 4
  %97 = add nsw i32 %96, 1
  store i32 %97, i32* %5, align 4
  br label %59

98:                                               ; preds = %59
  store i32 0, i32* %4, align 4
  store i32 0, i32* %5, align 4
  br label %99

99:                                               ; preds = %115, %98
  %100 = load i32, i32* %5, align 4
  %101 = icmp slt i32 %100, 500
  br i1 %101, label %102, label %118

102:                                              ; preds = %99
  %103 = load i32, i32* %5, align 4
  %104 = sext i32 %103 to i64
  %105 = getelementptr inbounds [500 x i32], [500 x i32]* %10, i64 0, i64 %104
  %106 = load i32, i32* %105, align 4
  %107 = load i32, i32* %4, align 4
  %108 = icmp sgt i32 %106, %107
  br i1 %108, label %109, label %114

109:                                              ; preds = %102
  %110 = load i32, i32* %5, align 4
  %111 = sext i32 %110 to i64
  %112 = getelementptr inbounds [500 x i32], [500 x i32]* %10, i64 0, i64 %111
  %113 = load i32, i32* %112, align 4
  store i32 %113, i32* %4, align 4
  br label %114

114:                                              ; preds = %109, %102
  br label %115

115:                                              ; preds = %114
  %116 = load i32, i32* %5, align 4
  %117 = add nsw i32 %116, 1
  store i32 %117, i32* %5, align 4
  br label %99

118:                                              ; preds = %99
  %119 = load i32, i32* %4, align 4
  %120 = icmp eq i32 %119, 0
  br i1 %120, label %121, label %123

121:                                              ; preds = %118
  %122 = call i32 (i8*, ...) @printf(i8* getelementptr inbounds ([4 x i8], [4 x i8]* @.str.1, i64 0, i64 0))
  br label %148

123:                                              ; preds = %118
  %124 = load i32, i32* %4, align 4
  %125 = add nsw i32 %124, 1
  %126 = call i32 (i8*, ...) @printf(i8* getelementptr inbounds ([4 x i8], [4 x i8]* @.str.2, i64 0, i64 0), i32 %125)
  store i32 0, i32* %5, align 4
  br label %127

127:                                              ; preds = %144, %123
  %128 = load i32, i32* %5, align 4
  %129 = icmp slt i32 %128, 500
  br i1 %129, label %130, label %147

130:                                              ; preds = %127
  %131 = load i32, i32* %5, align 4
  %132 = sext i32 %131 to i64
  %133 = getelementptr inbounds [500 x i32], [500 x i32]* %10, i64 0, i64 %132
  %134 = load i32, i32* %133, align 4
  %135 = load i32, i32* %4, align 4
  %136 = icmp eq i32 %134, %135
  br i1 %136, label %137, label %143

137:                                              ; preds = %130
  %138 = load i32, i32* %5, align 4
  %139 = sext i32 %138 to i64
  %140 = getelementptr inbounds [500 x [5 x i8]], [500 x [5 x i8]]* %9, i64 0, i64 %139
  %141 = getelementptr inbounds [5 x i8], [5 x i8]* %140, i64 0, i64 0
  %142 = call i32 (i8*, ...) @printf(i8* getelementptr inbounds ([4 x i8], [4 x i8]* @.str.3, i64 0, i64 0), i8* %141)
  br label %143

143:                                              ; preds = %137, %130
  br label %144

144:                                              ; preds = %143
  %145 = load i32, i32* %5, align 4
  %146 = add nsw i32 %145, 1
  store i32 %146, i32* %5, align 4
  br label %127

147:                                              ; preds = %127
  br label %148

148:                                              ; preds = %147, %121
  ret i32 0
}

; Function Attrs: argmemonly nounwind willreturn
declare void @llvm.memset.p0i8.i64(i8* nocapture writeonly, i8, i64, i1 immarg) #1

declare dso_local i32 @__isoc99_scanf(i8*, ...) #2

declare dso_local i32 @getchar() #2

declare dso_local i32 @gets(...) #2

; Function Attrs: nounwind readonly
declare dso_local i64 @strlen(i8*) #3

; Function Attrs: nounwind readonly
declare dso_local i32 @strcmp(i8*, i8*) #3

declare dso_local i32 @printf(i8*, ...) #2


!llvm.module.flags = !{!0}
!llvm.ident = !{!1}

!0 = !{i32 1, !"wchar_size", i32 4}
!1 = !{!"clang version 10.0.0-4ubuntu1 "}
